target datalayout = "e-m:e-p270:32:32-p271:32:32-p272:64:64-i64:64-i128:128-f80:128-n8:16:32:64-S128"
target triple = "x86_64-pc-linux-gnu"

%struct.Color = type { i8, i8, i8, i8 }
%struct.Image = type { ptr, i32, i32, i32, i32 }

; Function Attrs: nounwind uwtable
define void @ImageColorTint(ptr noundef %0, i32 %1) #0 {
  %3 = alloca %struct.Color, align 1
  %4 = alloca ptr, align 8
  %5 = alloca ptr, align 8
  %6 = alloca i32, align 4
  %7 = alloca i8, align 1
  %8 = alloca i8, align 1
  %9 = alloca i8, align 1
  %10 = alloca i8, align 1
  %11 = alloca i32, align 4
  store i32 %1, ptr %3, align 1
  store ptr %0, ptr %4, align 8
  %12 = load ptr, ptr %4, align 8
  %13 = getelementptr inbounds nuw %struct.Image, ptr %12, i32 0, i32 0
  %14 = load ptr, ptr %13, align 8
  %15 = icmp eq ptr %14, null
  br i1 %15, label %26, label %16

16:                                               ; preds = %2
  %17 = load ptr, ptr %4, align 8
  %18 = getelementptr inbounds nuw %struct.Image, ptr %17, i32 0, i32 1
  %19 = load i32, ptr %18, align 8
  %20 = icmp eq i32 %19, 0
  br i1 %20, label %26, label %21

21:                                               ; preds = %16
  %22 = load ptr, ptr %4, align 8
  %23 = getelementptr inbounds nuw %struct.Image, ptr %22, i32 0, i32 2
  %24 = load i32, ptr %23, align 4
  %25 = icmp eq i32 %24, 0
  br i1 %25, label %26, label %27

26:                                               ; preds = %21, %16, %2
  br label %135

27:                                               ; preds = %21
  call void @llvm.lifetime.start.p0(i64 8, ptr %5) #19
  %28 = load ptr, ptr %4, align 8
  %29 = call ptr @LoadImageColors(ptr noundef byval(%struct.Image) align 8 %28)
  store ptr %29, ptr %5, align 8
  call void @llvm.lifetime.start.p0(i64 4, ptr %6) #19
  store i32 0, ptr %6, align 4
  br label %30

30:                                               ; preds = %118, %27
  %31 = load i32, ptr %6, align 4
  %32 = load ptr, ptr %4, align 8
  %33 = getelementptr inbounds nuw %struct.Image, ptr %32, i32 0, i32 1
  %34 = load i32, ptr %33, align 8
  %35 = load ptr, ptr %4, align 8
  %36 = getelementptr inbounds nuw %struct.Image, ptr %35, i32 0, i32 2
  %37 = load i32, ptr %36, align 4
  %38 = mul nsw i32 %34, %37
  %39 = icmp slt i32 %31, %38
  br i1 %39, label %41, label %40

40:                                               ; preds = %30
  call void @llvm.lifetime.end.p0(i64 4, ptr %6) #19
  br label %121

41:                                               ; preds = %30
  call void @llvm.lifetime.start.p0(i64 1, ptr %7) #19
  %42 = load ptr, ptr %5, align 8
  %43 = load i32, ptr %6, align 4
  %44 = sext i32 %43 to i64
  %45 = getelementptr inbounds %struct.Color, ptr %42, i64 %44
  %46 = getelementptr inbounds nuw %struct.Color, ptr %45, i32 0, i32 0
  %47 = load i8, ptr %46, align 1
  %48 = zext i8 %47 to i32
  %49 = getelementptr inbounds nuw %struct.Color, ptr %3, i32 0, i32 0
  %50 = load i8, ptr %49, align 1
  %51 = zext i8 %50 to i32
  %52 = mul nsw i32 %48, %51
  %53 = sdiv i32 %52, 255
  %54 = trunc i32 %53 to i8
  store i8 %54, ptr %7, align 1
  call void @llvm.lifetime.start.p0(i64 1, ptr %8) #19
  %55 = load ptr, ptr %5, align 8
  %56 = load i32, ptr %6, align 4
  %57 = sext i32 %56 to i64
  %58 = getelementptr inbounds %struct.Color, ptr %55, i64 %57
  %59 = getelementptr inbounds nuw %struct.Color, ptr %58, i32 0, i32 1
  %60 = load i8, ptr %59, align 1
  %61 = zext i8 %60 to i32
  %62 = getelementptr inbounds nuw %struct.Color, ptr %3, i32 0, i32 1
  %63 = load i8, ptr %62, align 1
  %64 = zext i8 %63 to i32
  %65 = mul nsw i32 %61, %64
  %66 = sdiv i32 %65, 255
  %67 = trunc i32 %66 to i8
  store i8 %67, ptr %8, align 1
  call void @llvm.lifetime.start.p0(i64 1, ptr %9) #19
  %68 = load ptr, ptr %5, align 8
  %69 = load i32, ptr %6, align 4
  %70 = sext i32 %69 to i64
  %71 = getelementptr inbounds %struct.Color, ptr %68, i64 %70
  %72 = getelementptr inbounds nuw %struct.Color, ptr %71, i32 0, i32 2
  %73 = load i8, ptr %72, align 1
  %74 = zext i8 %73 to i32
  %75 = getelementptr inbounds nuw %struct.Color, ptr %3, i32 0, i32 2
  %76 = load i8, ptr %75, align 1
  %77 = zext i8 %76 to i32
  %78 = mul nsw i32 %74, %77
  %79 = sdiv i32 %78, 255
  %80 = trunc i32 %79 to i8
  store i8 %80, ptr %9, align 1
  call void @llvm.lifetime.start.p0(i64 1, ptr %10) #19
  %81 = load ptr, ptr %5, align 8
  %82 = load i32, ptr %6, align 4
  %83 = sext i32 %82 to i64
  %84 = getelementptr inbounds %struct.Color, ptr %81, i64 %83
  %85 = getelementptr inbounds nuw %struct.Color, ptr %84, i32 0, i32 3
  %86 = load i8, ptr %85, align 1
  %87 = zext i8 %86 to i32
  %88 = getelementptr inbounds nuw %struct.Color, ptr %3, i32 0, i32 3
  %89 = load i8, ptr %88, align 1
  %90 = zext i8 %89 to i32
  %91 = mul nsw i32 %87, %90
  %92 = sdiv i32 %91, 255
  %93 = trunc i32 %92 to i8
  store i8 %93, ptr %10, align 1
  %94 = load i8, ptr %7, align 1
  %95 = load ptr, ptr %5, align 8
  %96 = load i32, ptr %6, align 4
  %97 = sext i32 %96 to i64
  %98 = getelementptr inbounds %struct.Color, ptr %95, i64 %97
  %99 = getelementptr inbounds nuw %struct.Color, ptr %98, i32 0, i32 0
  store i8 %94, ptr %99, align 1
  %100 = load i8, ptr %8, align 1
  %101 = load ptr, ptr %5, align 8
  %102 = load i32, ptr %6, align 4
  %103 = sext i32 %102 to i64
  %104 = getelementptr inbounds %struct.Color, ptr %101, i64 %103
  %105 = getelementptr inbounds nuw %struct.Color, ptr %104, i32 0, i32 1
  store i8 %100, ptr %105, align 1
  %106 = load i8, ptr %9, align 1
  %107 = load ptr, ptr %5, align 8
  %108 = load i32, ptr %6, align 4
  %109 = sext i32 %108 to i64
  %110 = getelementptr inbounds %struct.Color, ptr %107, i64 %109
  %111 = getelementptr inbounds nuw %struct.Color, ptr %110, i32 0, i32 2
  store i8 %106, ptr %111, align 1
  %112 = load i8, ptr %10, align 1
  %113 = load ptr, ptr %5, align 8
  %114 = load i32, ptr %6, align 4
  %115 = sext i32 %114 to i64
  %116 = getelementptr inbounds %struct.Color, ptr %113, i64 %115
  %117 = getelementptr inbounds nuw %struct.Color, ptr %116, i32 0, i32 3
  store i8 %112, ptr %117, align 1
  call void @llvm.lifetime.end.p0(i64 1, ptr %10) #19
  call void @llvm.lifetime.end.p0(i64 1, ptr %9) #19
  call void @llvm.lifetime.end.p0(i64 1, ptr %8) #19
  call void @llvm.lifetime.end.p0(i64 1, ptr %7) #19
  br label %118

118:                                              ; preds = %41
  %119 = load i32, ptr %6, align 4
  %120 = add nsw i32 %119, 1
  store i32 %120, ptr %6, align 4
  br label %30

121:                                              ; preds = %40
  call void @llvm.lifetime.start.p0(i64 4, ptr %11) #19
  %122 = load ptr, ptr %4, align 8
  %123 = getelementptr inbounds nuw %struct.Image, ptr %122, i32 0, i32 4
  %124 = load i32, ptr %123, align 4
  store i32 %124, ptr %11, align 4
  %125 = load ptr, ptr %4, align 8
  %126 = getelementptr inbounds nuw %struct.Image, ptr %125, i32 0, i32 0
  %127 = load ptr, ptr %126, align 8
  call void @free(ptr noundef %127) #19
  %128 = load ptr, ptr %5, align 8
  %129 = load ptr, ptr %4, align 8
  %130 = getelementptr inbounds nuw %struct.Image, ptr %129, i32 0, i32 0
  store ptr %128, ptr %130, align 8
  %131 = load ptr, ptr %4, align 8
  %132 = getelementptr inbounds nuw %struct.Image, ptr %131, i32 0, i32 4
  store i32 7, ptr %132, align 4
  %133 = load ptr, ptr %4, align 8
  %134 = load i32, ptr %11, align 4
  call void @ImageFormat(ptr noundef %133, i32 noundef %134)
  call void @llvm.lifetime.end.p0(i64 4, ptr %11) #19
  call void @llvm.lifetime.end.p0(i64 8, ptr %5) #19
  br label %135

135:                                              ; preds = %121, %26
  ret void
}