; Function Attrs: nounwind uwtable
define void @ImageColorTint(ptr noundef %0, i32 %1) local_unnamed_addr #4 {
  %.sroa.2.0.extract.shift = lshr i32 %1, 8
  %.sroa.3.0.extract.shift = lshr i32 %1, 16
  %.sroa.4.0.extract.shift = lshr i32 %1, 24
  %3 = load ptr, ptr %0, align 8
  %4 = icmp eq ptr %3, null
  br i1 %4, label %55, label %5

5:                                                ; preds = %2
  %6 = getelementptr inbounds nuw i8, ptr %0, i64 8
  %7 = load i32, ptr %6, align 8
  %8 = icmp eq i32 %7, 0
  br i1 %8, label %55, label %9

9:                                                ; preds = %5
  %10 = getelementptr inbounds nuw i8, ptr %0, i64 12
  %11 = load i32, ptr %10, align 4
  %12 = icmp eq i32 %11, 0
  br i1 %12, label %55, label %13

13:                                               ; preds = %9
  %14 = tail call ptr @LoadImageColors(ptr noundef nonnull byval(%struct.Image) align 8 %0)
  %15 = load i32, ptr %6, align 8
  %16 = load i32, ptr %10, align 4
  %17 = mul nsw i32 %16, %15
  %18 = icmp sgt i32 %17, 0
  br i1 %18, label %.lr.ph, label %._crit_edge

.lr.ph:                                           ; preds = %13
  %19 = and i32 %1, 255
  %20 = and i32 %.sroa.2.0.extract.shift, 255
  %21 = and i32 %.sroa.3.0.extract.shift, 255
  br label %25

._crit_edge:                                      ; preds = %25, %13
  %22 = getelementptr inbounds nuw i8, ptr %0, i64 20
  %23 = load i32, ptr %22, align 4
  %24 = load ptr, ptr %0, align 8
  tail call void @free(ptr noundef %24) #54
  store ptr %14, ptr %0, align 8
  store i32 7, ptr %22, align 4
  tail call void @ImageFormat(ptr noundef nonnull %0, i32 noundef %23)
  br label %55

25:                                               ; preds = %.lr.ph, %25
  %indvars.iv = phi i64 [ 0, %.lr.ph ], [ %indvars.iv.next, %25 ]
  %26 = getelementptr inbounds nuw %struct.Color, ptr %14, i64 %indvars.iv
  %27 = load i8, ptr %26, align 1
  %28 = zext i8 %27 to i32
  %29 = mul nuw nsw i32 %19, %28
  %.lhs.trunc = trunc nuw i32 %29 to i16
  %30 = udiv i16 %.lhs.trunc, 255
  %31 = trunc nuw i16 %30 to i8
  %32 = getelementptr inbounds nuw i8, ptr %26, i64 1
  %33 = load i8, ptr %32, align 1
  %34 = zext i8 %33 to i32
  %35 = mul nuw nsw i32 %20, %34
  %.lhs.trunc34 = trunc nuw i32 %35 to i16
  %36 = udiv i16 %.lhs.trunc34, 255
  %37 = trunc nuw i16 %36 to i8
  %38 = getelementptr inbounds nuw i8, ptr %26, i64 2
  %39 = load i8, ptr %38, align 1
  %40 = zext i8 %39 to i32
  %41 = mul nuw nsw i32 %21, %40
  %.lhs.trunc36 = trunc nuw i32 %41 to i16
  %42 = udiv i16 %.lhs.trunc36, 255
  %43 = trunc nuw i16 %42 to i8
  %44 = getelementptr inbounds nuw i8, ptr %26, i64 3
  %45 = load i8, ptr %44, align 1
  %46 = zext i8 %45 to i32
  %47 = mul nuw nsw i32 %.sroa.4.0.extract.shift, %46
  %48 = udiv i32 %47, 255
  %49 = trunc nuw i32 %48 to i8
  store i8 %31, ptr %26, align 1
  store i8 %37, ptr %32, align 1
  store i8 %43, ptr %38, align 1
  store i8 %49, ptr %44, align 1
  %indvars.iv.next = add nuw nsw i64 %indvars.iv, 1
  %50 = load i32, ptr %6, align 8
  %51 = load i32, ptr %10, align 4
  %52 = mul nsw i32 %51, %50
  %53 = sext i32 %52 to i64
  %54 = icmp slt i64 %indvars.iv.next, %53
  br i1 %54, label %25, label %._crit_edge

55:                                               ; preds = %2, %5, %9, %._crit_edge
  ret void
}